target datalayout = "e-m:e-p270:32:32-p271:32:32-p272:64:64-i64:64-i128:128-f80:128-n8:16:32:64-S128"
target triple = "x86_64-pc-linux-gnu"

; Function Attrs: mustprogress uwtable
define void @_ZN32pxrInternal_v0_24__pxrReserved__40HdsiLegacyDisplayStyleOverrideSceneIndex11_PrimsAddedERKNS_16HdSceneIndexBaseERKNS_13TfSmallVectorINS_20HdSceneIndexObserver14AddedPrimEntryELj16EEE(ptr noundef nonnull align 8 dereferenceable(184) %0, ptr noundef nonnull align 8 dereferenceable(120) %1, ptr noundef nonnull align 1 %2) unnamed_addr #0 align 2 {
  %4 = alloca ptr, align 8
  %5 = alloca ptr, align 8
  %6 = alloca ptr, align 8
  store ptr %0, ptr %4, align 8
  store ptr %1, ptr %5, align 8
  store ptr %2, ptr %6, align 8
  %7 = load ptr, ptr %4, align 8
  %8 = call noundef zeroext i1 @_ZNK32pxrInternal_v0_24__pxrReserved__16HdSceneIndexBase11_IsObservedEv(ptr noundef nonnull align 8 dereferenceable(120) %7)
  br i1 %8, label %10, label %9

9:                                                ; preds = %3
  br label %12

10:                                               ; preds = %3
  %11 = load ptr, ptr %6, align 8
  call void @_ZN32pxrInternal_v0_24__pxrReserved__16HdSceneIndexBase15_SendPrimsAddedERKNS_13TfSmallVectorINS_20HdSceneIndexObserver14AddedPrimEntryELj16EEE(ptr noundef nonnull align 8 dereferenceable(120) %7, ptr noundef nonnull align 1 %11)
  br label %12

12:                                               ; preds = %10, %9
  ret void
}